; Function Attrs: nounwind uwtable
define internal void @spatial_compose_dd97i_dy_12bit(ptr noundef captures(none) %0, i32 noundef %1, i32 noundef %2, i32 noundef %3, i32 noundef %4) #0 {
  %6 = getelementptr inbounds nuw i8, ptr %0, i64 56
  %7 = load ptr, ptr %6, align 8, !tbaa !29
  %8 = getelementptr inbounds nuw i8, ptr %0, i64 96
  %9 = sext i32 %1 to i64
  %10 = getelementptr inbounds %struct.DWTCompose, ptr %8, i64 %9
  %11 = getelementptr inbounds nuw i8, ptr %10, i64 64
  %12 = load i32, ptr %11, align 8, !tbaa !23
  %.sroa.0.0.copyload = load ptr, ptr %10, align 8, !tbaa !22
  %.sroa.5.0..sroa_idx = getelementptr inbounds nuw i8, ptr %10, i64 8
  %.sroa.5.0.copyload = load ptr, ptr %.sroa.5.0..sroa_idx, align 8, !tbaa !22
  %.sroa.6.0..sroa_idx = getelementptr inbounds nuw i8, ptr %10, i64 16
  %.sroa.6.0.copyload = load ptr, ptr %.sroa.6.0..sroa_idx, align 8, !tbaa !22
  %.sroa.8.0..sroa_idx = getelementptr inbounds nuw i8, ptr %10, i64 24
  %.sroa.8.0.copyload = load ptr, ptr %.sroa.8.0..sroa_idx, align 8, !tbaa !22
  %.sroa.9.0..sroa_idx = getelementptr inbounds nuw i8, ptr %10, i64 32
  %.sroa.9.0.copyload = load ptr, ptr %.sroa.9.0..sroa_idx, align 8, !tbaa !22
  %.sroa.10.0..sroa_idx = getelementptr inbounds nuw i8, ptr %10, i64 40
  %.sroa.10.0.copyload = load ptr, ptr %.sroa.10.0..sroa_idx, align 8, !tbaa !22
  %13 = load ptr, ptr %0, align 8, !tbaa !11
  %14 = add nsw i32 %12, 5
  %15 = add nsw i32 %3, -2
  %16 = icmp slt i32 %12, -5
  %..i41 = tail call i32 @llvm.smin.i32(i32 %14, i32 %15)
  %.0.i42 = select i1 %16, i32 0, i32 %..i41
  %17 = mul nsw i32 %.0.i42, %4
  %18 = sext i32 %17 to i64
  %19 = getelementptr inbounds i8, ptr %13, i64 %18
  %20 = add nsw i32 %12, 6
  %21 = add nsw i32 %3, -1
  %..i = tail call i32 @llvm.smin.i32(i32 %20, i32 %21)
  %.0.i = select i1 %16, i32 1, i32 %..i
  %22 = mul nsw i32 %.0.i, %4
  %23 = sext i32 %22 to i64
  %24 = getelementptr inbounds i8, ptr %13, i64 %23
  %25 = icmp ult i32 %14, %3
  br i1 %25, label %26, label %29

26:                                               ; preds = %5
  %27 = getelementptr inbounds nuw i8, ptr %0, i64 48
  %28 = load ptr, ptr %27, align 8, !tbaa !29
  tail call void %28(ptr noundef %.sroa.10.0.copyload, ptr noundef %19, ptr noundef %24, i32 noundef %2) #6
  br label %29

29:                                               ; preds = %26, %5
  %30 = add nsw i32 %12, 1
  %31 = icmp ult i32 %30, %3
  br i1 %31, label %32, label %33

32:                                               ; preds = %29
  tail call void %7(ptr noundef %.sroa.0.0.copyload, ptr noundef %.sroa.6.0.copyload, ptr noundef %.sroa.8.0.copyload, ptr noundef %.sroa.9.0.copyload, ptr noundef %19, i32 noundef %2) #6
  br label %33

33:                                               ; preds = %32, %29
  %34 = add nsw i32 %12, -1
  %35 = icmp ult i32 %34, %3
  br i1 %35, label %36, label %41

36:                                               ; preds = %33
  %37 = getelementptr inbounds nuw i8, ptr %0, i64 88
  %38 = load ptr, ptr %37, align 8, !tbaa !33
  %39 = getelementptr inbounds nuw i8, ptr %0, i64 8
  %40 = load ptr, ptr %39, align 8, !tbaa !20
  tail call void %38(ptr noundef %.sroa.0.0.copyload, ptr noundef %40, i32 noundef %2) #6
  br label %41

41:                                               ; preds = %36, %33
  %42 = icmp ult i32 %12, %3
  br i1 %42, label %43, label %48

43:                                               ; preds = %41
  %44 = getelementptr inbounds nuw i8, ptr %0, i64 88
  %45 = load ptr, ptr %44, align 8, !tbaa !33
  %46 = getelementptr inbounds nuw i8, ptr %0, i64 8
  %47 = load ptr, ptr %46, align 8, !tbaa !20
  tail call void %45(ptr noundef %.sroa.5.0.copyload, ptr noundef %47, i32 noundef %2) #6
  br label %48

48:                                               ; preds = %43, %41
  store ptr %.sroa.6.0.copyload, ptr %10, align 8, !tbaa !22
  store ptr %.sroa.8.0.copyload, ptr %.sroa.5.0..sroa_idx, align 8, !tbaa !22
  store ptr %.sroa.9.0.copyload, ptr %.sroa.6.0..sroa_idx, align 8, !tbaa !22
  store ptr %.sroa.10.0.copyload, ptr %.sroa.8.0..sroa_idx, align 8, !tbaa !22
  store ptr %19, ptr %.sroa.9.0..sroa_idx, align 8, !tbaa !22
  store ptr %24, ptr %.sroa.10.0..sroa_idx, align 8, !tbaa !22
  %49 = load i32, ptr %11, align 8, !tbaa !23
  %50 = add nsw i32 %49, 2
  store i32 %50, ptr %11, align 8, !tbaa !23
  ret void
}